target datalayout = "e-m:e-p270:32:32-p271:32:32-p272:64:64-i64:64-i128:128-f80:128-n8:16:32:64-S128"
target triple = "x86_64-pc-linux-gnu"

%struct._packet_info = type { ptr, ptr, i32, i32, %struct.nstime_t, %struct.nstime_t, %struct.nstime_t, i32, ptr, ptr, ptr, ptr, %struct._address, %struct._address, %struct._address, %struct._address, %struct._address, %struct._address, i32, ptr, i32, %struct.anon, i32, i32, i32, i32, ptr, i32, ptr, ptr, i16, i16, i32, i32, i16, i32, i32, ptr, ptr, ptr, i8, i8, i16, i16, i16, i32, i16, i16, ptr, ptr, ptr, ptr, ptr, i32 }
%struct.nstime_t = type { i64, i32 }
%struct._address = type { i32, i32, ptr, ptr }
%struct.anon = type { i8, [3 x i8] }
%struct._proto_node = type { ptr, ptr, ptr, ptr, ptr, ptr }
%struct.field_info = type { ptr, i32, i32, i32, i32, i32, i32, ptr, ptr, ptr, i32, i32 }

@.str.757 = private unnamed_addr constant [5 x i8] c": %s\00", align 1
@.str.786 = private unnamed_addr constant [4 x i8] c" %s\00", align 1

; Function Attrs: nounwind uwtable
define internal void @proto_item_set_hidden(ptr noundef %0) #0 {
  %2 = alloca ptr, align 8
  store ptr %0, ptr %2, align 8
  %3 = load ptr, ptr %2, align 8
  %4 = icmp ne ptr %3, null
  br i1 %4, label %5, label %24

5:                                                ; preds = %1
  br label %6

6:                                                ; preds = %5
  %7 = load ptr, ptr %2, align 8
  %8 = getelementptr inbounds %struct._proto_node, ptr %7, i32 0, i32 4
  %9 = load ptr, ptr %8, align 8
  %10 = icmp ne ptr %9, null
  br i1 %10, label %11, label %22

11:                                               ; preds = %6
  %12 = load ptr, ptr %2, align 8
  %13 = getelementptr inbounds %struct._proto_node, ptr %12, i32 0, i32 4
  %14 = load ptr, ptr %13, align 8
  %15 = getelementptr inbounds %struct.field_info, ptr %14, i32 0, i32 6
  %16 = load i32, ptr %15, align 4
  %17 = or i32 %16, 1
  %18 = load ptr, ptr %2, align 8
  %19 = getelementptr inbounds %struct._proto_node, ptr %18, i32 0, i32 4
  %20 = load ptr, ptr %19, align 8
  %21 = getelementptr inbounds %struct.field_info, ptr %20, i32 0, i32 6
  store i32 %17, ptr %21, align 4
  br label %22

22:                                               ; preds = %11, %6
  br label %23

23:                                               ; preds = %22
  br label %24

24:                                               ; preds = %23, %1
  ret void
}

; Function Attrs: nounwind uwtable
define internal void @cb_notify_str_postprocess(ptr noundef %0, ptr noundef %1, ptr noundef %2, ptr noundef %3, ptr noundef %4, i32 noundef %5, i32 noundef %6, ptr noundef %7) #0 {
  %9 = alloca ptr, align 8
  %10 = alloca ptr, align 8
  %11 = alloca ptr, align 8
  %12 = alloca ptr, align 8
  %13 = alloca ptr, align 8
  %14 = alloca i32, align 4
  %15 = alloca i32, align 4
  %16 = alloca ptr, align 8
  %17 = alloca i32, align 4
  %18 = alloca i32, align 4
  %19 = alloca i32, align 4
  %20 = alloca ptr, align 8
  %21 = alloca ptr, align 8
  store ptr %0, ptr %9, align 8
  store ptr %1, ptr %10, align 8
  store ptr %2, ptr %11, align 8
  store ptr %3, ptr %12, align 8
  store ptr %4, ptr %13, align 8
  store i32 %5, ptr %14, align 4
  store i32 %6, ptr %15, align 4
  store ptr %7, ptr %16, align 8
  %22 = load ptr, ptr %16, align 8
  %23 = ptrtoint ptr %22 to i64
  %24 = trunc i64 %23 to i32
  store i32 %24, ptr %18, align 4
  %25 = load i32, ptr %14, align 4
  %26 = srem i32 %25, 4
  %27 = icmp ne i32 %26, 0
  br i1 %27, label %28, label %34

28:                                               ; preds = %8
  %29 = load i32, ptr %14, align 4
  %30 = srem i32 %29, 4
  %31 = sub i32 4, %30
  %32 = load i32, ptr %14, align 4
  %33 = add i32 %32, %31
  store i32 %33, ptr %14, align 4
  br label %34

34:                                               ; preds = %28, %8
  %35 = load ptr, ptr %13, align 8
  %36 = load i32, ptr %14, align 4
  %37 = call i32 @tvb_get_letohl(ptr noundef %35, i32 noundef %36)
  store i32 %37, ptr %19, align 4
  %38 = load ptr, ptr %9, align 8
  %39 = getelementptr inbounds %struct._packet_info, ptr %38, i32 0, i32 50
  %40 = load ptr, ptr %39, align 8
  %41 = load ptr, ptr %13, align 8
  %42 = load i32, ptr %14, align 4
  %43 = add i32 %42, 4
  %44 = load i32, ptr %15, align 4
  %45 = load i32, ptr %14, align 4
  %46 = sub i32 %44, %45
  %47 = sub i32 %46, 4
  %48 = call ptr @tvb_get_string_enc(ptr noundef %40, ptr noundef %41, i32 noundef %43, i32 noundef %47, i32 noundef -2147483644)
  store ptr %48, ptr %20, align 8
  store i32 2, ptr %17, align 4
  %49 = load i32, ptr %17, align 4
  %50 = icmp sgt i32 %49, 0
  br i1 %50, label %51, label %94

51:                                               ; preds = %34
  %52 = load ptr, ptr %11, align 8
  %53 = icmp ne ptr %52, null
  br i1 %53, label %54, label %94

54:                                               ; preds = %51
  %55 = load ptr, ptr %20, align 8
  %56 = icmp ne ptr %55, null
  br i1 %56, label %57, label %94

57:                                               ; preds = %54
  %58 = load ptr, ptr %20, align 8
  %59 = getelementptr i8, ptr %58, i64 0
  %60 = load i8, ptr %59, align 1
  %61 = sext i8 %60 to i32
  %62 = icmp ne i32 %61, 0
  br i1 %62, label %63, label %94

63:                                               ; preds = %57
  %64 = load ptr, ptr %11, align 8
  %65 = load ptr, ptr %20, align 8
  call void (ptr, ptr, ...) @proto_item_append_text(ptr noundef %64, ptr noundef @.str.757, ptr noundef %65)
  %66 = load ptr, ptr %11, align 8
  %67 = getelementptr inbounds %struct._proto_node, ptr %66, i32 0, i32 3
  %68 = load ptr, ptr %67, align 8
  store ptr %68, ptr %11, align 8
  %69 = load i32, ptr %17, align 4
  %70 = add i32 %69, -1
  store i32 %70, ptr %17, align 4
  %71 = load i32, ptr %17, align 4
  %72 = icmp sgt i32 %71, 0
  br i1 %72, label %73, label %93

73:                                               ; preds = %63
  %74 = load ptr, ptr %11, align 8
  %75 = load ptr, ptr %20, align 8
  call void (ptr, ptr, ...) @proto_item_append_text(ptr noundef %74, ptr noundef @.str.757, ptr noundef %75)
  %76 = load ptr, ptr %11, align 8
  %77 = getelementptr inbounds %struct._proto_node, ptr %76, i32 0, i32 3
  %78 = load ptr, ptr %77, align 8
  store ptr %78, ptr %11, align 8
  %79 = load i32, ptr %17, align 4
  %80 = add i32 %79, -1
  store i32 %80, ptr %17, align 4
  br label %81

81:                                               ; preds = %84, %73
  %82 = load i32, ptr %17, align 4
  %83 = icmp sgt i32 %82, 0
  br i1 %83, label %84, label %92

84:                                               ; preds = %81
  %85 = load ptr, ptr %11, align 8
  %86 = load ptr, ptr %20, align 8
  call void (ptr, ptr, ...) @proto_item_append_text(ptr noundef %85, ptr noundef @.str.786, ptr noundef %86)
  %87 = load ptr, ptr %11, align 8
  %88 = getelementptr inbounds %struct._proto_node, ptr %87, i32 0, i32 3
  %89 = load ptr, ptr %88, align 8
  store ptr %89, ptr %11, align 8
  %90 = load i32, ptr %17, align 4
  %91 = add i32 %90, -1
  store i32 %91, ptr %17, align 4
  br label %81, !llvm.loop !6

92:                                               ; preds = %81
  br label %93

93:                                               ; preds = %92, %63
  br label %94

94:                                               ; preds = %93, %57, %54, %51, %34
  %95 = load i32, ptr %18, align 4
  %96 = icmp sgt i32 %95, 0
  br i1 %96, label %97, label %106

97:                                               ; preds = %94
  %98 = load ptr, ptr %10, align 8
  %99 = load i32, ptr %18, align 4
  %100 = load ptr, ptr %13, align 8
  %101 = load i32, ptr %14, align 4
  %102 = load i32, ptr %19, align 4
  %103 = load ptr, ptr %20, align 8
  %104 = call ptr @proto_tree_add_string(ptr noundef %98, i32 noundef %99, ptr noundef %100, i32 noundef %101, i32 noundef %102, ptr noundef %103)
  store ptr %104, ptr %21, align 8
  %105 = load ptr, ptr %21, align 8
  call void @proto_item_set_hidden(ptr noundef %105)
  br label %106

106:                                              ; preds = %97, %94
  ret void
}