; Function Attrs: nounwind uwtable
define internal void @cb_notify_str_postprocess(ptr noundef readonly captures(none) %0, ptr noundef %1, ptr noundef %2, ptr readnone captures(none) %3, ptr noundef %4, i32 noundef %5, i32 noundef %6, ptr noundef %7) #0 {
  %9 = ptrtoint ptr %7 to i64
  %10 = trunc i64 %9 to i32
  %11 = srem i32 %5, 4
  %.not = icmp eq i32 %11, 0
  %reass.sub = add i32 %5, 4
  %12 = sub i32 %reass.sub, %11
  %.039 = select i1 %.not, i32 %5, i32 %12
  %13 = tail call i32 @tvb_get_letohl(ptr noundef %4, i32 noundef %.039) #5
  %14 = getelementptr inbounds nuw i8, ptr %0, i64 408
  %15 = load ptr, ptr %14, align 8
  %16 = add i32 %.039, 4
  %17 = add i32 %6, -4
  %18 = sub i32 %17, %.039
  %19 = tail call ptr @tvb_get_string_enc(ptr noundef %15, ptr noundef %4, i32 noundef %16, i32 noundef %18, i32 noundef -2147483644) #5
  %20 = icmp ne ptr %2, null
  %21 = icmp ne ptr %19, null
  %or.cond3 = select i1 %20, i1 %21, i1 false
  br i1 %or.cond3, label %22, label %27

22:                                               ; preds = %8
  %23 = load i8, ptr %19, align 1
  %.not45 = icmp eq i8 %23, 0
  br i1 %.not45, label %27, label %24

24:                                               ; preds = %22
  tail call void (ptr, ptr, ...) @proto_item_append_text(ptr noundef nonnull %2, ptr noundef nonnull @.str.757, ptr noundef nonnull %19) #5
  %25 = getelementptr inbounds nuw i8, ptr %2, i64 24
  %26 = load ptr, ptr %25, align 8
  tail call void (ptr, ptr, ...) @proto_item_append_text(ptr noundef %26, ptr noundef nonnull @.str.757, ptr noundef nonnull %19) #5
  br label %27

27:                                               ; preds = %24, %22, %8
  %28 = icmp sgt i32 %10, 0
  br i1 %28, label %29, label %proto_item_set_hidden.exit

29:                                               ; preds = %27
  %30 = tail call ptr @proto_tree_add_string(ptr noundef %1, i32 noundef %10, ptr noundef %4, i32 noundef %.039, i32 noundef %13, ptr noundef %19) #5
  %.not.i = icmp eq ptr %30, null
  br i1 %.not.i, label %proto_item_set_hidden.exit, label %31

31:                                               ; preds = %29
  %32 = getelementptr inbounds nuw i8, ptr %30, i64 32
  %33 = load ptr, ptr %32, align 8
  %.not5.i = icmp eq ptr %33, null
  br i1 %.not5.i, label %proto_item_set_hidden.exit, label %34

34:                                               ; preds = %31
  %35 = getelementptr inbounds nuw i8, ptr %33, i64 28
  %36 = load i32, ptr %35, align 4
  %37 = or i32 %36, 1
  store i32 %37, ptr %35, align 4
  br label %proto_item_set_hidden.exit

proto_item_set_hidden.exit:                       ; preds = %34, %31, %29, %27
  ret void
}